target datalayout = "e-m:e-p270:32:32-p271:32:32-p272:64:64-i64:64-i128:128-f80:128-n8:16:32:64-S128"
target triple = "x86_64-pc-linux-gnu"

%struct.evp_aead_ctx_st = type { ptr, ptr }
%struct.AEAD_SSL3_CTX = type { %struct.evp_cipher_ctx_st, %struct.env_md_ctx_st }
%struct.evp_cipher_ctx_st = type { ptr, ptr, ptr, i32, i32, i32, [16 x i8], [16 x i8], [32 x i8], i32, i32, i32, i32, [32 x i8] }
%struct.env_md_ctx_st = type { ptr, ptr, ptr, ptr }

; Function Attrs: nounwind uwtable
define internal i32 @aead_ssl3_get_iv(ptr noundef %0, ptr noundef %1, ptr noundef %2) #0 {
  %4 = alloca i32, align 4
  %5 = alloca ptr, align 8
  %6 = alloca ptr, align 8
  %7 = alloca ptr, align 8
  %8 = alloca ptr, align 8
  %9 = alloca i64, align 8
  %10 = alloca i32, align 4
  store ptr %0, ptr %5, align 8, !tbaa !6
  store ptr %1, ptr %6, align 8, !tbaa !42
  store ptr %2, ptr %7, align 8, !tbaa !21
  call void @llvm.lifetime.start.p0(i64 8, ptr %8) #6
  %11 = load ptr, ptr %5, align 8, !tbaa !6
  %12 = getelementptr inbounds nuw %struct.evp_aead_ctx_st, ptr %11, i32 0, i32 1
  %13 = load ptr, ptr %12, align 8, !tbaa !17
  store ptr %13, ptr %8, align 8, !tbaa !20
  call void @llvm.lifetime.start.p0(i64 8, ptr %9) #6
  %14 = load ptr, ptr %8, align 8, !tbaa !20
  %15 = getelementptr inbounds nuw %struct.AEAD_SSL3_CTX, ptr %14, i32 0, i32 0
  %16 = call i32 @EVP_CIPHER_CTX_iv_length(ptr noundef %15)
  %17 = zext i32 %16 to i64
  store i64 %17, ptr %9, align 8, !tbaa !13
  %18 = load i64, ptr %9, align 8, !tbaa !13
  %19 = icmp ule i64 %18, 1
  br i1 %19, label %20, label %21

20:                                               ; preds = %3
  store i32 0, ptr %4, align 4
  store i32 1, ptr %10, align 4
  br label %29

21:                                               ; preds = %3
  %22 = load ptr, ptr %8, align 8, !tbaa !20
  %23 = getelementptr inbounds nuw %struct.AEAD_SSL3_CTX, ptr %22, i32 0, i32 0
  %24 = getelementptr inbounds nuw %struct.evp_cipher_ctx_st, ptr %23, i32 0, i32 7
  %25 = getelementptr inbounds [16 x i8], ptr %24, i64 0, i64 0
  %26 = load ptr, ptr %6, align 8, !tbaa !42
  store ptr %25, ptr %26, align 8, !tbaa !11
  %27 = load i64, ptr %9, align 8, !tbaa !13
  %28 = load ptr, ptr %7, align 8, !tbaa !21
  store i64 %27, ptr %28, align 8, !tbaa !13
  store i32 1, ptr %4, align 4
  store i32 1, ptr %10, align 4
  br label %29

29:                                               ; preds = %21, %20
  call void @llvm.lifetime.end.p0(i64 8, ptr %9) #6
  call void @llvm.lifetime.end.p0(i64 8, ptr %8) #6
  %30 = load i32, ptr %4, align 4
  ret i32 %30
}